target datalayout = "e-m:e-p270:32:32-p271:32:32-p272:64:64-i64:64-i128:128-f80:128-n8:16:32:64-S128"
target triple = "x86_64-pc-linux-gnu"

%struct._zval_struct = type { %union._zend_value, %union.anon, %union.anon.2 }
%union._zend_value = type { i64 }
%union.anon = type { i32 }
%union.anon.2 = type { i32 }
%struct._zend_refcounted_h = type { i32, %union.anon.3 }
%union.anon.3 = type { i32 }
%struct.lexbor_shs_entry_t = type { ptr, ptr, i64, i64 }
%struct.lxb_encoding_data = type { i32, ptr, ptr, ptr, ptr, ptr }
%struct._xmlDoc = type { ptr, i32, ptr, ptr, ptr, ptr, ptr, ptr, ptr, i32, i32, ptr, ptr, ptr, ptr, ptr, ptr, ptr, ptr, i32, ptr, ptr, i32, i32 }
%struct._zend_string = type { %struct._zend_refcounted_h, i64, i64, [1 x i8] }

@xmlFree = external global ptr, align 8
@.str.18 = private unnamed_addr constant [26 x i8] c"Invalid document encoding\00", align 1
@lxb_encoding_res_shs_entities = external constant [220 x %struct.lexbor_shs_entry_t], align 16

; Function Attrs: nounwind uwtable
define internal ptr @lxb_encoding_data_by_name(ptr noundef %0, i64 noundef %1) #0 {
  %3 = alloca ptr, align 8
  %4 = alloca ptr, align 8
  %5 = alloca i64, align 8
  %6 = alloca ptr, align 8
  store ptr %0, ptr %4, align 8
  store i64 %1, ptr %5, align 8
  %7 = load i64, ptr %5, align 8
  %8 = icmp eq i64 %7, 0
  br i1 %8, label %9, label %10

9:                                                ; preds = %2
  store ptr null, ptr %3, align 8
  br label %21

10:                                               ; preds = %2
  %11 = load ptr, ptr %4, align 8
  %12 = load i64, ptr %5, align 8
  %13 = call ptr @lexbor_shs_entry_get_lower_static(ptr noundef @lxb_encoding_res_shs_entities, ptr noundef %11, i64 noundef %12)
  store ptr %13, ptr %6, align 8
  %14 = load ptr, ptr %6, align 8
  %15 = icmp eq ptr %14, null
  br i1 %15, label %16, label %17

16:                                               ; preds = %10
  store ptr null, ptr %3, align 8
  br label %21

17:                                               ; preds = %10
  %18 = load ptr, ptr %6, align 8
  %19 = getelementptr inbounds %struct.lexbor_shs_entry_t, ptr %18, i32 0, i32 1
  %20 = load ptr, ptr %19, align 8
  store ptr %20, ptr %3, align 8
  br label %21

21:                                               ; preds = %17, %16, %9
  %22 = load ptr, ptr %3, align 8
  ret ptr %22
}

; Function Attrs: nounwind uwtable
define hidden i32 @dom_html_document_encoding_write(ptr noundef %0, ptr noundef %1) #0 {
  %3 = alloca ptr, align 8
  %4 = alloca i32, align 4
  %5 = alloca ptr, align 8
  %6 = alloca ptr, align 8
  %7 = alloca ptr, align 8
  %8 = alloca ptr, align 8
  %9 = alloca ptr, align 8
  store ptr %0, ptr %5, align 8
  store ptr %1, ptr %6, align 8
  %10 = load ptr, ptr %5, align 8
  %11 = call ptr @dom_object_get_node(ptr noundef %10)
  store ptr %11, ptr %7, align 8
  %12 = load ptr, ptr %7, align 8
  %13 = icmp eq ptr %12, null
  br i1 %13, label %14, label %15

14:                                               ; preds = %2
  call void @php_dom_throw_error(i32 noundef 11, i32 noundef 1)
  store i32 -1, ptr %4, align 4
  br label %50

15:                                               ; preds = %2
  %16 = load ptr, ptr %6, align 8
  store ptr %16, ptr %3, align 8
  %17 = load ptr, ptr %3, align 8
  %18 = getelementptr inbounds %struct._zval_struct, ptr %17, i32 0, i32 1
  %19 = load i8, ptr %18, align 8
  %20 = zext i8 %19 to i32
  %21 = icmp eq i32 %20, 1
  br i1 %21, label %22, label %23

22:                                               ; preds = %15
  br label %49

23:                                               ; preds = %15
  %24 = load ptr, ptr %6, align 8
  %25 = getelementptr inbounds %struct._zval_struct, ptr %24, i32 0, i32 0
  %26 = load ptr, ptr %25, align 8
  store ptr %26, ptr %8, align 8
  %27 = load ptr, ptr %8, align 8
  %28 = getelementptr inbounds %struct._zend_string, ptr %27, i32 0, i32 3
  %29 = getelementptr inbounds [1 x i8], ptr %28, i64 0, i64 0
  %30 = load ptr, ptr %8, align 8
  %31 = getelementptr inbounds %struct._zend_string, ptr %30, i32 0, i32 2
  %32 = load i64, ptr %31, align 8
  %33 = call ptr @lxb_encoding_data_by_name(ptr noundef %29, i64 noundef %32)
  store ptr %33, ptr %9, align 8
  %34 = load ptr, ptr %9, align 8
  %35 = icmp ne ptr %34, null
  br i1 %35, label %36, label %47

36:                                               ; preds = %23
  %37 = load ptr, ptr @xmlFree, align 8
  %38 = load ptr, ptr %7, align 8
  %39 = getelementptr inbounds %struct._xmlDoc, ptr %38, i32 0, i32 15
  %40 = load ptr, ptr %39, align 8
  call void %37(ptr noundef %40)
  %41 = load ptr, ptr %9, align 8
  %42 = getelementptr inbounds %struct.lxb_encoding_data, ptr %41, i32 0, i32 5
  %43 = load ptr, ptr %42, align 8
  %44 = call ptr @xmlStrdup(ptr noundef %43)
  %45 = load ptr, ptr %7, align 8
  %46 = getelementptr inbounds %struct._xmlDoc, ptr %45, i32 0, i32 15
  store ptr %44, ptr %46, align 8
  br label %48

47:                                               ; preds = %23
  br label %49

48:                                               ; preds = %36
  store i32 0, ptr %4, align 4
  br label %50

49:                                               ; preds = %47, %22
  call void (ptr, ...) @zend_value_error(ptr noundef @.str.18)
  store i32 -1, ptr %4, align 4
  br label %50

50:                                               ; preds = %49, %48, %14
  %51 = load i32, ptr %4, align 4
  ret i32 %51
}