; Function Attrs: nounwind uwtable
define hidden noundef i32 @dom_html_document_encoding_write(ptr noundef %0, ptr nocapture noundef readonly %1) local_unnamed_addr #0 {
  %3 = tail call ptr @dom_object_get_node(ptr noundef %0) #11
  %4 = icmp eq ptr %3, null
  br i1 %4, label %5, label %6

5:                                                ; preds = %2
  tail call void @php_dom_throw_error(i32 noundef 11, i32 noundef 1) #11
  br label %28

6:                                                ; preds = %2
  %7 = getelementptr inbounds i8, ptr %1, i64 8
  %8 = load i8, ptr %7, align 8
  %9 = icmp eq i8 %8, 1
  br i1 %9, label %lxb_encoding_data_by_name.exit.thread, label %10

10:                                               ; preds = %6
  %11 = load ptr, ptr %1, align 8
  %12 = getelementptr inbounds i8, ptr %11, i64 16
  %13 = load i64, ptr %12, align 8
  %14 = icmp eq i64 %13, 0
  br i1 %14, label %lxb_encoding_data_by_name.exit.thread, label %15

15:                                               ; preds = %10
  %16 = getelementptr inbounds i8, ptr %11, i64 24
  %17 = tail call ptr @lexbor_shs_entry_get_lower_static(ptr noundef nonnull @lxb_encoding_res_shs_entities, ptr noundef nonnull %16, i64 noundef %13) #11
  %18 = icmp eq ptr %17, null
  br i1 %18, label %lxb_encoding_data_by_name.exit.thread, label %lxb_encoding_data_by_name.exit

lxb_encoding_data_by_name.exit:                   ; preds = %15
  %19 = getelementptr inbounds i8, ptr %17, i64 8
  %20 = load ptr, ptr %19, align 8
  %.not = icmp eq ptr %20, null
  br i1 %.not, label %lxb_encoding_data_by_name.exit.thread, label %21

21:                                               ; preds = %lxb_encoding_data_by_name.exit
  %22 = load ptr, ptr @xmlFree, align 8
  %23 = getelementptr inbounds i8, ptr %3, i64 112
  %24 = load ptr, ptr %23, align 8
  tail call void %22(ptr noundef %24) #11
  %25 = getelementptr inbounds i8, ptr %20, i64 40
  %26 = load ptr, ptr %25, align 8
  %27 = tail call ptr @xmlStrdup(ptr noundef %26) #11
  store ptr %27, ptr %23, align 8
  br label %28

lxb_encoding_data_by_name.exit.thread:            ; preds = %15, %10, %lxb_encoding_data_by_name.exit, %6
  tail call void (ptr, ...) @zend_value_error(ptr noundef nonnull @.str.18) #11
  br label %28

28:                                               ; preds = %lxb_encoding_data_by_name.exit.thread, %21, %5
  %.0 = phi i32 [ -1, %5 ], [ -1, %lxb_encoding_data_by_name.exit.thread ], [ 0, %21 ]
  ret i32 %.0
}